; Function Attrs: nounwind uwtable
define dso_local range(i64 0, 2) i64 @has_type_privilege_name_id(ptr noundef captures(none) %0) local_unnamed_addr #0 {
  %2 = alloca i8, align 1
  %3 = getelementptr inbounds nuw i8, ptr %0, i64 32
  %4 = load i64, ptr %3, align 8
  %5 = inttoptr i64 %4 to ptr
  %6 = getelementptr inbounds nuw i8, ptr %0, i64 48
  %7 = load i64, ptr %6, align 8
  %8 = trunc i64 %7 to i32
  %9 = getelementptr inbounds nuw i8, ptr %0, i64 64
  %10 = load i64, ptr %9, align 8
  %11 = inttoptr i64 %10 to ptr
  %12 = tail call ptr @pg_detoast_datum_packed(ptr noundef %11) #14
  call void @llvm.lifetime.start.p0(i64 1, ptr nonnull %2) #14
  store i8 0, ptr %2, align 1
  %13 = tail call i32 @strcmp(ptr noundef nonnull dereferenceable(1) %5, ptr noundef nonnull dereferenceable(7) @.str.32) #17
  %14 = icmp eq i32 %13, 0
  br i1 %14, label %get_role_oid_or_public.exit, label %15

15:                                               ; preds = %1
  %16 = tail call i32 @GetSysCacheOid(i32 noundef 10, i16 noundef signext 1, i64 noundef %4, i64 noundef 0, i64 noundef 0, i64 noundef 0) #14
  %.not.i.not.i = icmp eq i32 %16, 0
  br i1 %.not.i.not.i, label %17, label %get_role_oid_or_public.exit

17:                                               ; preds = %15
  %18 = tail call zeroext i1 @errstart_cold(i32 noundef 21, ptr noundef null) #15
  tail call void @llvm.assume(i1 %18)
  %19 = tail call i32 @errcode(i32 noundef 67137668) #14
  %20 = tail call i32 (ptr, ...) @errmsg(ptr noundef nonnull @.str.31, ptr noundef nonnull %5) #14
  tail call void @errfinish(ptr noundef nonnull @.str.1, i32 noundef 5563, ptr noundef nonnull @__func__.get_role_oid) #14
  unreachable

get_role_oid_or_public.exit:                      ; preds = %1, %15
  %.0.i = phi i32 [ 0, %1 ], [ %16, %15 ]
  %21 = tail call fastcc i64 @convert_any_priv_string(ptr noundef %12, ptr noundef nonnull @convert_type_priv_string.type_priv_map)
  %22 = call i32 @object_aclcheck_ext(i32 noundef 1247, i32 noundef %8, i32 noundef %.0.i, i64 noundef %21, ptr noundef nonnull %2) #14
  %23 = load i8, ptr %2, align 1, !range !27, !noundef !28
  %24 = trunc nuw i8 %23 to i1
  br i1 %24, label %25, label %27

25:                                               ; preds = %get_role_oid_or_public.exit
  %26 = getelementptr inbounds nuw i8, ptr %0, i64 28
  store i8 1, ptr %26, align 4
  br label %30

27:                                               ; preds = %get_role_oid_or_public.exit
  %28 = icmp eq i32 %22, 0
  %29 = zext i1 %28 to i64
  br label %30

30:                                               ; preds = %27, %25
  %.0 = phi i64 [ 0, %25 ], [ %29, %27 ]
  call void @llvm.lifetime.end.p0(i64 1, ptr nonnull %2) #14
  ret i64 %.0
}